target datalayout = "e-m:e-p270:32:32-p271:32:32-p272:64:64-i64:64-i128:128-f80:128-n8:16:32:64-S128"
target triple = "x86_64-pc-linux-gnu"

%struct.AVFormatContext = type { ptr, ptr, ptr, ptr, ptr, i32, i32, ptr, i32, ptr, i32, ptr, ptr, i64, i64, i64, i32, i32, i32, i64, i64, ptr, i32, i32, ptr, i32, i32, i32, i32, ptr, i64, i32, i32, %struct.AVIOInterruptCB, i32, i32, i32, i32, i64, i32, i32, i32, i32, i32, i32, i32, i32, i32, i32, i32, i32, i64, i32, i32, i32, i32, i32, ptr, ptr, ptr, ptr, i32, ptr, ptr, ptr, ptr, i32, ptr, ptr, i64, ptr, ptr, ptr, i64 }
%struct.AVIOInterruptCB = type { ptr, ptr }
%struct.SMJPEGContext = type { i32, i32 }
%struct.AVPacket = type { ptr, i64, i64, ptr, i32, i32, i32, ptr, i32, i64, i64, ptr, ptr, %struct.AVRational }
%struct.AVRational = type { i32, i32 }

@.str.10 = private unnamed_addr constant [18 x i8] c"unknown chunk %x\0A\00", align 1

; Function Attrs: alwaysinline nounwind uwtable
define internal i64 @avio_tell(ptr noundef %0) #4 {
  %2 = alloca ptr, align 8
  store ptr %0, ptr %2, align 8, !tbaa !35
  %3 = load ptr, ptr %2, align 8, !tbaa !35
  %4 = call i64 @avio_seek(ptr noundef %3, i64 noundef 0, i32 noundef 1)
  ret i64 %4
}

; Function Attrs: nounwind uwtable
define internal i32 @smjpeg_read_packet(ptr noundef %0, ptr noundef %1) #0 {
  %3 = alloca i32, align 4
  %4 = alloca ptr, align 8
  %5 = alloca ptr, align 8
  %6 = alloca ptr, align 8
  %7 = alloca i32, align 4
  %8 = alloca i32, align 4
  %9 = alloca i32, align 4
  %10 = alloca i64, align 8
  %11 = alloca i32, align 4
  %12 = alloca i32, align 4
  store ptr %0, ptr %4, align 8, !tbaa !13
  store ptr %1, ptr %5, align 8, !tbaa !64
  call void @llvm.lifetime.start.p0(i64 8, ptr %6) #6
  %13 = load ptr, ptr %4, align 8, !tbaa !13
  %14 = getelementptr inbounds nuw %struct.AVFormatContext, ptr %13, i32 0, i32 3
  %15 = load ptr, ptr %14, align 8, !tbaa !15
  store ptr %15, ptr %6, align 8, !tbaa !30
  call void @llvm.lifetime.start.p0(i64 4, ptr %7) #6
  call void @llvm.lifetime.start.p0(i64 4, ptr %8) #6
  call void @llvm.lifetime.start.p0(i64 4, ptr %9) #6
  call void @llvm.lifetime.start.p0(i64 8, ptr %10) #6
  call void @llvm.lifetime.start.p0(i64 4, ptr %11) #6
  %16 = load ptr, ptr %4, align 8, !tbaa !13
  %17 = getelementptr inbounds nuw %struct.AVFormatContext, ptr %16, i32 0, i32 4
  %18 = load ptr, ptr %17, align 8, !tbaa !34
  %19 = call i32 @avio_feof(ptr noundef %18)
  %20 = icmp ne i32 %19, 0
  br i1 %20, label %21, label %22

21:                                               ; preds = %2
  store i32 -541478725, ptr %3, align 4
  store i32 1, ptr %12, align 4
  br label %104

22:                                               ; preds = %2
  %23 = load ptr, ptr %4, align 8, !tbaa !13
  %24 = getelementptr inbounds nuw %struct.AVFormatContext, ptr %23, i32 0, i32 4
  %25 = load ptr, ptr %24, align 8, !tbaa !34
  %26 = call i64 @avio_tell(ptr noundef %25)
  store i64 %26, ptr %10, align 8, !tbaa !66
  %27 = load ptr, ptr %4, align 8, !tbaa !13
  %28 = getelementptr inbounds nuw %struct.AVFormatContext, ptr %27, i32 0, i32 4
  %29 = load ptr, ptr %28, align 8, !tbaa !34
  %30 = call i32 @avio_rl32(ptr noundef %29)
  store i32 %30, ptr %7, align 4, !tbaa !39
  %31 = load i32, ptr %7, align 4, !tbaa !39
  switch i32 %31, label %99 [
    i32 1147432563, label %32
    i32 1147431286, label %65
    i32 1162760004, label %98
  ]

32:                                               ; preds = %22
  %33 = load ptr, ptr %6, align 8, !tbaa !30
  %34 = getelementptr inbounds nuw %struct.SMJPEGContext, ptr %33, i32 0, i32 0
  %35 = load i32, ptr %34, align 4, !tbaa !38
  %36 = icmp slt i32 %35, 0
  br i1 %36, label %37, label %38

37:                                               ; preds = %32
  store i32 -1094995529, ptr %3, align 4
  store i32 1, ptr %12, align 4
  br label %104

38:                                               ; preds = %32
  %39 = load ptr, ptr %4, align 8, !tbaa !13
  %40 = getelementptr inbounds nuw %struct.AVFormatContext, ptr %39, i32 0, i32 4
  %41 = load ptr, ptr %40, align 8, !tbaa !34
  %42 = call i32 @avio_rb32(ptr noundef %41)
  store i32 %42, ptr %9, align 4, !tbaa !39
  %43 = load ptr, ptr %4, align 8, !tbaa !13
  %44 = getelementptr inbounds nuw %struct.AVFormatContext, ptr %43, i32 0, i32 4
  %45 = load ptr, ptr %44, align 8, !tbaa !34
  %46 = call i32 @avio_rb32(ptr noundef %45)
  store i32 %46, ptr %8, align 4, !tbaa !39
  %47 = load ptr, ptr %4, align 8, !tbaa !13
  %48 = getelementptr inbounds nuw %struct.AVFormatContext, ptr %47, i32 0, i32 4
  %49 = load ptr, ptr %48, align 8, !tbaa !34
  %50 = load ptr, ptr %5, align 8, !tbaa !64
  %51 = load i32, ptr %8, align 4, !tbaa !39
  %52 = call i32 @av_get_packet(ptr noundef %49, ptr noundef %50, i32 noundef %51)
  store i32 %52, ptr %11, align 4, !tbaa !39
  %53 = load ptr, ptr %6, align 8, !tbaa !30
  %54 = getelementptr inbounds nuw %struct.SMJPEGContext, ptr %53, i32 0, i32 0
  %55 = load i32, ptr %54, align 4, !tbaa !38
  %56 = load ptr, ptr %5, align 8, !tbaa !64
  %57 = getelementptr inbounds nuw %struct.AVPacket, ptr %56, i32 0, i32 5
  store i32 %55, ptr %57, align 4, !tbaa !67
  %58 = load i32, ptr %9, align 4, !tbaa !39
  %59 = zext i32 %58 to i64
  %60 = load ptr, ptr %5, align 8, !tbaa !64
  %61 = getelementptr inbounds nuw %struct.AVPacket, ptr %60, i32 0, i32 1
  store i64 %59, ptr %61, align 8, !tbaa !68
  %62 = load i64, ptr %10, align 8, !tbaa !66
  %63 = load ptr, ptr %5, align 8, !tbaa !64
  %64 = getelementptr inbounds nuw %struct.AVPacket, ptr %63, i32 0, i32 10
  store i64 %62, ptr %64, align 8, !tbaa !69
  br label %102

65:                                               ; preds = %22
  %66 = load ptr, ptr %6, align 8, !tbaa !30
  %67 = getelementptr inbounds nuw %struct.SMJPEGContext, ptr %66, i32 0, i32 1
  %68 = load i32, ptr %67, align 4, !tbaa !36
  %69 = icmp slt i32 %68, 0
  br i1 %69, label %70, label %71

70:                                               ; preds = %65
  store i32 -1094995529, ptr %3, align 4
  store i32 1, ptr %12, align 4
  br label %104

71:                                               ; preds = %65
  %72 = load ptr, ptr %4, align 8, !tbaa !13
  %73 = getelementptr inbounds nuw %struct.AVFormatContext, ptr %72, i32 0, i32 4
  %74 = load ptr, ptr %73, align 8, !tbaa !34
  %75 = call i32 @avio_rb32(ptr noundef %74)
  store i32 %75, ptr %9, align 4, !tbaa !39
  %76 = load ptr, ptr %4, align 8, !tbaa !13
  %77 = getelementptr inbounds nuw %struct.AVFormatContext, ptr %76, i32 0, i32 4
  %78 = load ptr, ptr %77, align 8, !tbaa !34
  %79 = call i32 @avio_rb32(ptr noundef %78)
  store i32 %79, ptr %8, align 4, !tbaa !39
  %80 = load ptr, ptr %4, align 8, !tbaa !13
  %81 = getelementptr inbounds nuw %struct.AVFormatContext, ptr %80, i32 0, i32 4
  %82 = load ptr, ptr %81, align 8, !tbaa !34
  %83 = load ptr, ptr %5, align 8, !tbaa !64
  %84 = load i32, ptr %8, align 4, !tbaa !39
  %85 = call i32 @av_get_packet(ptr noundef %82, ptr noundef %83, i32 noundef %84)
  store i32 %85, ptr %11, align 4, !tbaa !39
  %86 = load ptr, ptr %6, align 8, !tbaa !30
  %87 = getelementptr inbounds nuw %struct.SMJPEGContext, ptr %86, i32 0, i32 1
  %88 = load i32, ptr %87, align 4, !tbaa !36
  %89 = load ptr, ptr %5, align 8, !tbaa !64
  %90 = getelementptr inbounds nuw %struct.AVPacket, ptr %89, i32 0, i32 5
  store i32 %88, ptr %90, align 4, !tbaa !67
  %91 = load i32, ptr %9, align 4, !tbaa !39
  %92 = zext i32 %91 to i64
  %93 = load ptr, ptr %5, align 8, !tbaa !64
  %94 = getelementptr inbounds nuw %struct.AVPacket, ptr %93, i32 0, i32 1
  store i64 %92, ptr %94, align 8, !tbaa !68
  %95 = load i64, ptr %10, align 8, !tbaa !66
  %96 = load ptr, ptr %5, align 8, !tbaa !64
  %97 = getelementptr inbounds nuw %struct.AVPacket, ptr %96, i32 0, i32 10
  store i64 %95, ptr %97, align 8, !tbaa !69
  br label %102

98:                                               ; preds = %22
  store i32 -541478725, ptr %11, align 4, !tbaa !39
  br label %102

99:                                               ; preds = %22
  %100 = load ptr, ptr %4, align 8, !tbaa !13
  %101 = load i32, ptr %7, align 4, !tbaa !39
  call void (ptr, i32, ptr, ...) @av_log(ptr noundef %100, i32 noundef 16, ptr noundef @.str.10, i32 noundef %101)
  store i32 -1094995529, ptr %11, align 4, !tbaa !39
  br label %102

102:                                              ; preds = %99, %98, %71, %38
  %103 = load i32, ptr %11, align 4, !tbaa !39
  store i32 %103, ptr %3, align 4
  store i32 1, ptr %12, align 4
  br label %104

104:                                              ; preds = %102, %70, %37, %21
  call void @llvm.lifetime.end.p0(i64 4, ptr %11) #6
  call void @llvm.lifetime.end.p0(i64 8, ptr %10) #6
  call void @llvm.lifetime.end.p0(i64 4, ptr %9) #6
  call void @llvm.lifetime.end.p0(i64 4, ptr %8) #6
  call void @llvm.lifetime.end.p0(i64 4, ptr %7) #6
  call void @llvm.lifetime.end.p0(i64 8, ptr %6) #6
  %105 = load i32, ptr %3, align 4
  ret i32 %105
}