; Function Attrs: nounwind uwtable
define internal i32 @smjpeg_read_packet(ptr noundef %0, ptr noundef %1) #1 {
  %3 = getelementptr inbounds nuw i8, ptr %0, i64 24
  %4 = load ptr, ptr %3, align 8, !tbaa !11
  %5 = getelementptr inbounds nuw i8, ptr %0, i64 32
  %6 = load ptr, ptr %5, align 8, !tbaa !26
  %7 = tail call i32 @avio_feof(ptr noundef %6) #5
  %.not = icmp eq i32 %7, 0
  br i1 %.not, label %8, label %45

8:                                                ; preds = %2
  %9 = load ptr, ptr %5, align 8, !tbaa !26
  %10 = tail call i64 @avio_seek(ptr noundef %9, i64 noundef 0, i32 noundef 1) #5
  %11 = load ptr, ptr %5, align 8, !tbaa !26
  %12 = tail call i32 @avio_rl32(ptr noundef %11) #5
  switch i32 %12, label %44 [
    i32 1147432563, label %13
    i32 1147431286, label %28
    i32 1162760004, label %45
  ]

13:                                               ; preds = %8
  %14 = load i32, ptr %4, align 4, !tbaa !29
  %15 = icmp slt i32 %14, 0
  br i1 %15, label %45, label %16

16:                                               ; preds = %13
  %17 = load ptr, ptr %5, align 8, !tbaa !26
  %18 = tail call i32 @avio_rb32(ptr noundef %17) #5
  %19 = load ptr, ptr %5, align 8, !tbaa !26
  %20 = tail call i32 @avio_rb32(ptr noundef %19) #5
  %21 = load ptr, ptr %5, align 8, !tbaa !26
  %22 = tail call i32 @av_get_packet(ptr noundef %21, ptr noundef %1, i32 noundef %20) #5
  %23 = load i32, ptr %4, align 4, !tbaa !29
  %24 = getelementptr inbounds nuw i8, ptr %1, i64 36
  store i32 %23, ptr %24, align 4, !tbaa !53
  %25 = zext i32 %18 to i64
  %26 = getelementptr inbounds nuw i8, ptr %1, i64 8
  store i64 %25, ptr %26, align 8, !tbaa !54
  %27 = getelementptr inbounds nuw i8, ptr %1, i64 72
  store i64 %10, ptr %27, align 8, !tbaa !55
  br label %45

28:                                               ; preds = %8
  %29 = getelementptr inbounds nuw i8, ptr %4, i64 4
  %30 = load i32, ptr %29, align 4, !tbaa !27
  %31 = icmp slt i32 %30, 0
  br i1 %31, label %45, label %32

32:                                               ; preds = %28
  %33 = load ptr, ptr %5, align 8, !tbaa !26
  %34 = tail call i32 @avio_rb32(ptr noundef %33) #5
  %35 = load ptr, ptr %5, align 8, !tbaa !26
  %36 = tail call i32 @avio_rb32(ptr noundef %35) #5
  %37 = load ptr, ptr %5, align 8, !tbaa !26
  %38 = tail call i32 @av_get_packet(ptr noundef %37, ptr noundef %1, i32 noundef %36) #5
  %39 = load i32, ptr %29, align 4, !tbaa !27
  %40 = getelementptr inbounds nuw i8, ptr %1, i64 36
  store i32 %39, ptr %40, align 4, !tbaa !53
  %41 = zext i32 %34 to i64
  %42 = getelementptr inbounds nuw i8, ptr %1, i64 8
  store i64 %41, ptr %42, align 8, !tbaa !54
  %43 = getelementptr inbounds nuw i8, ptr %1, i64 72
  store i64 %10, ptr %43, align 8, !tbaa !55
  br label %45

44:                                               ; preds = %8
  tail call void (ptr, i32, ptr, ...) @av_log(ptr noundef nonnull %0, i32 noundef 16, ptr noundef nonnull @.str.10, i32 noundef %12) #5
  br label %45

45:                                               ; preds = %16, %32, %44, %8, %28, %13, %2
  %.032 = phi i32 [ -541478725, %2 ], [ -1094995529, %13 ], [ -1094995529, %28 ], [ -1094995529, %44 ], [ %38, %32 ], [ %22, %16 ], [ -541478725, %8 ]
  ret i32 %.032
}